target datalayout = "e-m:e-p270:32:32-p271:32:32-p272:64:64-i64:64-i128:128-f80:128-n8:16:32:64-S128"
target triple = "x86_64-unknown-linux-gnu"

%class.btCollisionWorldImporter = type { ptr, ptr, i32, [4 x i8], %class.btAlignedObjectArray, %class.btAlignedObjectArray.0, %class.btAlignedObjectArray.4, %class.btAlignedObjectArray.8, %class.btAlignedObjectArray.12, %class.btAlignedObjectArray.16, %class.btAlignedObjectArray.0, %class.btAlignedObjectArray.20, %class.btAlignedObjectArray.24, %class.btAlignedObjectArray.28, %class.btAlignedObjectArray.32, %class.btAlignedObjectArray.36, %class.btAlignedObjectArray.40, %class.btHashMap, %class.btHashMap.52, %class.btHashMap.53, %class.btHashMap.58, %class.btHashMap.59, %class.btHashMap.64, %class.btHashMap.65 }
%class.btAlignedObjectArray = type <{ %class.btAlignedAllocator, [3 x i8], i32, i32, [4 x i8], ptr, i8, [7 x i8] }>
%class.btAlignedAllocator = type { i8 }
%class.btAlignedObjectArray.4 = type <{ %class.btAlignedAllocator.5, [3 x i8], i32, i32, [4 x i8], ptr, i8, [7 x i8] }>
%class.btAlignedAllocator.5 = type { i8 }
%class.btAlignedObjectArray.8 = type <{ %class.btAlignedAllocator.9, [3 x i8], i32, i32, [4 x i8], ptr, i8, [7 x i8] }>
%class.btAlignedAllocator.9 = type { i8 }
%class.btAlignedObjectArray.12 = type <{ %class.btAlignedAllocator.13, [3 x i8], i32, i32, [4 x i8], ptr, i8, [7 x i8] }>
%class.btAlignedAllocator.13 = type { i8 }
%class.btAlignedObjectArray.16 = type <{ %class.btAlignedAllocator.17, [3 x i8], i32, i32, [4 x i8], ptr, i8, [7 x i8] }>
%class.btAlignedAllocator.17 = type { i8 }
%class.btAlignedObjectArray.0 = type <{ %class.btAlignedAllocator.1, [3 x i8], i32, i32, [4 x i8], ptr, i8, [7 x i8] }>
%class.btAlignedAllocator.1 = type { i8 }
%class.btAlignedObjectArray.20 = type <{ %class.btAlignedAllocator.21, [3 x i8], i32, i32, [4 x i8], ptr, i8, [7 x i8] }>
%class.btAlignedAllocator.21 = type { i8 }
%class.btAlignedObjectArray.24 = type <{ %class.btAlignedAllocator.25, [3 x i8], i32, i32, [4 x i8], ptr, i8, [7 x i8] }>
%class.btAlignedAllocator.25 = type { i8 }
%class.btAlignedObjectArray.28 = type <{ %class.btAlignedAllocator.29, [3 x i8], i32, i32, [4 x i8], ptr, i8, [7 x i8] }>
%class.btAlignedAllocator.29 = type { i8 }
%class.btAlignedObjectArray.32 = type <{ %class.btAlignedAllocator.33, [3 x i8], i32, i32, [4 x i8], ptr, i8, [7 x i8] }>
%class.btAlignedAllocator.33 = type { i8 }
%class.btAlignedObjectArray.36 = type <{ %class.btAlignedAllocator.37, [3 x i8], i32, i32, [4 x i8], ptr, i8, [7 x i8] }>
%class.btAlignedAllocator.37 = type { i8 }
%class.btAlignedObjectArray.40 = type <{ %class.btAlignedAllocator.41, [3 x i8], i32, i32, [4 x i8], ptr, i8, [7 x i8] }>
%class.btAlignedAllocator.41 = type { i8 }
%class.btHashMap = type { %class.btAlignedObjectArray.44, %class.btAlignedObjectArray.44, %class.btAlignedObjectArray.4, %class.btAlignedObjectArray.48 }
%class.btAlignedObjectArray.44 = type <{ %class.btAlignedAllocator.45, [3 x i8], i32, i32, [4 x i8], ptr, i8, [7 x i8] }>
%class.btAlignedAllocator.45 = type { i8 }
%class.btAlignedObjectArray.48 = type <{ %class.btAlignedAllocator.49, [3 x i8], i32, i32, [4 x i8], ptr, i8, [7 x i8] }>
%class.btAlignedAllocator.49 = type { i8 }
%class.btHashMap.52 = type { %class.btAlignedObjectArray.44, %class.btAlignedObjectArray.44, %class.btAlignedObjectArray.8, %class.btAlignedObjectArray.48 }
%class.btHashMap.53 = type { %class.btAlignedObjectArray.44, %class.btAlignedObjectArray.44, %class.btAlignedObjectArray, %class.btAlignedObjectArray.54 }
%class.btAlignedObjectArray.54 = type <{ %class.btAlignedAllocator.55, [3 x i8], i32, i32, [4 x i8], ptr, i8, [7 x i8] }>
%class.btAlignedAllocator.55 = type { i8 }
%class.btHashMap.58 = type { %class.btAlignedObjectArray.44, %class.btAlignedObjectArray.44, %class.btAlignedObjectArray.0, %class.btAlignedObjectArray.54 }
%class.btHashMap.59 = type { %class.btAlignedObjectArray.44, %class.btAlignedObjectArray.44, %class.btAlignedObjectArray.60, %class.btAlignedObjectArray.48 }
%class.btAlignedObjectArray.60 = type <{ %class.btAlignedAllocator.61, [3 x i8], i32, i32, [4 x i8], ptr, i8, [7 x i8] }>
%class.btAlignedAllocator.61 = type { i8 }
%class.btHashMap.64 = type { %class.btAlignedObjectArray.44, %class.btAlignedObjectArray.44, %class.btAlignedObjectArray, %class.btAlignedObjectArray.48 }
%class.btHashMap.65 = type { %class.btAlignedObjectArray.44, %class.btAlignedObjectArray.44, %class.btAlignedObjectArray.0, %class.btAlignedObjectArray.48 }

; Function Attrs: mustprogress nounwind uwtable
define linkonce_odr dso_local noundef nonnull align 8 dereferenceable(8) ptr @_ZN20btAlignedObjectArrayIP16btCollisionShapeEixEi(ptr noundef nonnull align 8 dereferenceable(25) %this, i32 noundef %n) #1 comdat align 2 {
entry:
  %this.addr = alloca ptr, align 8
  %n.addr = alloca i32, align 4
  store ptr %this, ptr %this.addr, align 8
  store i32 %n, ptr %n.addr, align 4
  %this1 = load ptr, ptr %this.addr, align 8
  %m_data = getelementptr inbounds %class.btAlignedObjectArray, ptr %this1, i32 0, i32 5
  %0 = load ptr, ptr %m_data, align 8
  %1 = load i32, ptr %n.addr, align 4
  %idxprom = sext i32 %1 to i64
  %arrayidx = getelementptr inbounds ptr, ptr %0, i64 %idxprom
  ret ptr %arrayidx
}

; Function Attrs: mustprogress uwtable
define dso_local noundef ptr @_ZN24btCollisionWorldImporter24getCollisionShapeByIndexEi(ptr noundef nonnull align 8 dereferenceable(1336) %this, i32 noundef %index) #2 align 2 {
entry:
  %this.addr = alloca ptr, align 8
  %index.addr = alloca i32, align 4
  store ptr %this, ptr %this.addr, align 8
  store i32 %index, ptr %index.addr, align 4
  %this1 = load ptr, ptr %this.addr, align 8
  %m_allocatedCollisionShapes = getelementptr inbounds %class.btCollisionWorldImporter, ptr %this1, i32 0, i32 4
  %0 = load i32, ptr %index.addr, align 4
  %call = call noundef nonnull align 8 dereferenceable(8) ptr @_ZN20btAlignedObjectArrayIP16btCollisionShapeEixEi(ptr noundef nonnull align 8 dereferenceable(25) %m_allocatedCollisionShapes, i32 noundef %0)
  %1 = load ptr, ptr %call, align 8
  ret ptr %1
}